target datalayout = "e-m:e-p270:32:32-p271:32:32-p272:64:64-i64:64-i128:128-f80:128-n8:16:32:64-S128"
target triple = "x86_64-pc-linux-gnu"

%struct._zend_live_range = type { i32, i32, i32 }

; Function Attrs: nounwind uwtable
define internal void @swap_live_range(ptr noundef %0, ptr noundef %1) #0 {
  %3 = alloca ptr, align 8
  %4 = alloca ptr, align 8
  %5 = alloca i32, align 4
  store ptr %0, ptr %3, align 8, !tbaa !193
  store ptr %1, ptr %4, align 8, !tbaa !193
  call void @llvm.lifetime.start.p0(i64 4, ptr %5) #14
  %6 = load ptr, ptr %3, align 8, !tbaa !193
  %7 = getelementptr inbounds nuw %struct._zend_live_range, ptr %6, i32 0, i32 0
  %8 = load i32, ptr %7, align 4, !tbaa !219
  store i32 %8, ptr %5, align 4, !tbaa !10
  %9 = load ptr, ptr %4, align 8, !tbaa !193
  %10 = getelementptr inbounds nuw %struct._zend_live_range, ptr %9, i32 0, i32 0
  %11 = load i32, ptr %10, align 4, !tbaa !219
  %12 = load ptr, ptr %3, align 8, !tbaa !193
  %13 = getelementptr inbounds nuw %struct._zend_live_range, ptr %12, i32 0, i32 0
  store i32 %11, ptr %13, align 4, !tbaa !219
  %14 = load i32, ptr %5, align 4, !tbaa !10
  %15 = load ptr, ptr %4, align 8, !tbaa !193
  %16 = getelementptr inbounds nuw %struct._zend_live_range, ptr %15, i32 0, i32 0
  store i32 %14, ptr %16, align 4, !tbaa !219
  %17 = load ptr, ptr %3, align 8, !tbaa !193
  %18 = getelementptr inbounds nuw %struct._zend_live_range, ptr %17, i32 0, i32 1
  %19 = load i32, ptr %18, align 4, !tbaa !194
  store i32 %19, ptr %5, align 4, !tbaa !10
  %20 = load ptr, ptr %4, align 8, !tbaa !193
  %21 = getelementptr inbounds nuw %struct._zend_live_range, ptr %20, i32 0, i32 1
  %22 = load i32, ptr %21, align 4, !tbaa !194
  %23 = load ptr, ptr %3, align 8, !tbaa !193
  %24 = getelementptr inbounds nuw %struct._zend_live_range, ptr %23, i32 0, i32 1
  store i32 %22, ptr %24, align 4, !tbaa !194
  %25 = load i32, ptr %5, align 4, !tbaa !10
  %26 = load ptr, ptr %4, align 8, !tbaa !193
  %27 = getelementptr inbounds nuw %struct._zend_live_range, ptr %26, i32 0, i32 1
  store i32 %25, ptr %27, align 4, !tbaa !194
  %28 = load ptr, ptr %3, align 8, !tbaa !193
  %29 = getelementptr inbounds nuw %struct._zend_live_range, ptr %28, i32 0, i32 2
  %30 = load i32, ptr %29, align 4, !tbaa !220
  store i32 %30, ptr %5, align 4, !tbaa !10
  %31 = load ptr, ptr %4, align 8, !tbaa !193
  %32 = getelementptr inbounds nuw %struct._zend_live_range, ptr %31, i32 0, i32 2
  %33 = load i32, ptr %32, align 4, !tbaa !220
  %34 = load ptr, ptr %3, align 8, !tbaa !193
  %35 = getelementptr inbounds nuw %struct._zend_live_range, ptr %34, i32 0, i32 2
  store i32 %33, ptr %35, align 4, !tbaa !220
  %36 = load i32, ptr %5, align 4, !tbaa !10
  %37 = load ptr, ptr %4, align 8, !tbaa !193
  %38 = getelementptr inbounds nuw %struct._zend_live_range, ptr %37, i32 0, i32 2
  store i32 %36, ptr %38, align 4, !tbaa !220
  call void @llvm.lifetime.end.p0(i64 4, ptr %5) #14
  ret void
}