; Function Attrs: mustprogress nofree norecurse nosync nounwind willreturn memory(argmem: readwrite) uwtable
define internal void @swap_live_range(ptr noundef captures(none) %0, ptr noundef captures(none) %1) #11 {
  %3 = load i32, ptr %0, align 4, !tbaa !169
  %4 = load i32, ptr %1, align 4, !tbaa !169
  store i32 %4, ptr %0, align 4, !tbaa !169
  store i32 %3, ptr %1, align 4, !tbaa !169
  %5 = getelementptr inbounds nuw i8, ptr %0, i64 4
  %6 = load i32, ptr %5, align 4, !tbaa !171
  %7 = getelementptr inbounds nuw i8, ptr %1, i64 4
  %8 = load i32, ptr %7, align 4, !tbaa !171
  store i32 %8, ptr %5, align 4, !tbaa !171
  store i32 %6, ptr %7, align 4, !tbaa !171
  %9 = getelementptr inbounds nuw i8, ptr %0, i64 8
  %10 = load i32, ptr %9, align 4, !tbaa !172
  %11 = getelementptr inbounds nuw i8, ptr %1, i64 8
  %12 = load i32, ptr %11, align 4, !tbaa !172
  store i32 %12, ptr %9, align 4, !tbaa !172
  store i32 %10, ptr %11, align 4, !tbaa !172
  ret void
}